; ModuleID = '10/1939.c'
source_filename = "10/1939.c"
target datalayout = "e-m:e-p270:32:32-p271:32:32-p272:64:64-i64:64-f80:128-n8:16:32:64-S128"
target triple = "x86_64-pc-linux-gnu"

@.str = private unnamed_addr constant [3 x i8] c"%d\00", align 1

; Function Attrs: noinline nounwind uwtable
define dso_local i32 @com(i8* %0, i8* %1) #0 {
  %3 = alloca i8*, align 8
  %4 = alloca i8*, align 8
  store i8* %0, i8** %3, align 8
  store i8* %1, i8** %4, align 8
  %5 = load i8*, i8** %3, align 8
  %6 = bitcast i8* %5 to i32*
  %7 = load i32, i32* %6, align 4
  %8 = load i8*, i8** %4, align 8
  %9 = bitcast i8* %8 to i32*
  %10 = load i32, i32* %9, align 4
  %11 = sub nsw i32 %7, %10
  ret i32 %11
}

; Function Attrs: noinline nounwind uwtable
define dso_local i32 @main() #0 {
  %1 = alloca i32, align 4
  %2 = alloca i32, align 4
  %3 = alloca i32, align 4
  %4 = alloca [30 x i32], align 16
  %5 = alloca [30 x i32], align 16
  %6 = alloca i32, align 4
  %7 = alloca i32, align 4
  %8 = alloca i32, align 4
  store i32 0, i32* %1, align 4
  %9 = bitcast [30 x i32]* %5 to i8*
  call void @llvm.memset.p0i8.i64(i8* align 16 %9, i8 0, i64 120, i1 false)
  %10 = bitcast i8* %9 to <{ i32, [29 x i32] }>*
  %11 = getelementptr inbounds <{ i32, [29 x i32] }>, <{ i32, [29 x i32] }>* %10, i32 0, i32 0
  store i32 1, i32* %11, align 16
  %12 = call i32 (i8*, ...) @__isoc99_scanf(i8* getelementptr inbounds ([3 x i8], [3 x i8]* @.str, i64 0, i64 0), i32* %2)
  store i32 0, i32* %6, align 4
  br label %13

13:                                               ; preds = %22, %0
  %14 = load i32, i32* %6, align 4
  %15 = load i32, i32* %2, align 4
  %16 = icmp slt i32 %14, %15
  br i1 %16, label %17, label %25

17:                                               ; preds = %13
  %18 = load i32, i32* %6, align 4
  %19 = sext i32 %18 to i64
  %20 = getelementptr inbounds [30 x i32], [30 x i32]* %4, i64 0, i64 %19
  %21 = call i32 (i8*, ...) @__isoc99_scanf(i8* getelementptr inbounds ([3 x i8], [3 x i8]* @.str, i64 0, i64 0), i32* %20)
  br label %22

22:                                               ; preds = %17
  %23 = load i32, i32* %6, align 4
  %24 = add nsw i32 %23, 1
  store i32 %24, i32* %6, align 4
  br label %13

25:                                               ; preds = %13
  %26 = load i32, i32* %2, align 4
  %27 = sub nsw i32 %26, 2
  store i32 %27, i32* %7, align 4
  br label %28

28:                                               ; preds = %67, %25
  %29 = load i32, i32* %7, align 4
  %30 = icmp sge i32 %29, 0
  br i1 %30, label %31, label %70

31:                                               ; preds = %28
  %32 = load i32, i32* %2, align 4
  %33 = sub nsw i32 %32, 1
  store i32 %33, i32* %8, align 4
  br label %34

34:                                               ; preds = %63, %31
  %35 = load i32, i32* %8, align 4
  %36 = load i32, i32* %7, align 4
  %37 = icmp sgt i32 %35, %36
  br i1 %37, label %38, label %66

38:                                               ; preds = %34
  %39 = load i32, i32* %7, align 4
  %40 = sext i32 %39 to i64
  %41 = getelementptr inbounds [30 x i32], [30 x i32]* %4, i64 0, i64 %40
  %42 = load i32, i32* %41, align 4
  %43 = load i32, i32* %8, align 4
  %44 = sext i32 %43 to i64
  %45 = getelementptr inbounds [30 x i32], [30 x i32]* %4, i64 0, i64 %44
  %46 = load i32, i32* %45, align 4
  %47 = icmp sge i32 %42, %46
  br i1 %47, label %48, label %62

48:                                               ; preds = %38
  %49 = load i32, i32* %8, align 4
  %50 = sext i32 %49 to i64
  %51 = getelementptr inbounds [30 x i32], [30 x i32]* %5, i64 0, i64 %50
  %52 = load i32, i32* %51, align 4
  %53 = add nsw i32 %52, 1
  %54 = load i32, i32* %7, align 4
  %55 = sext i32 %54 to i64
  %56 = getelementptr inbounds [30 x i32], [30 x i32]* %5, i64 0, i64 %55
  %57 = load i32, i32* %56, align 4
  %58 = call i32 (i32, i32, ...) bitcast (i32 (...)* @max to i32 (i32, i32, ...)*)(i32 %53, i32 %57)
  %59 = load i32, i32* %7, align 4
  %60 = sext i32 %59 to i64
  %61 = getelementptr inbounds [30 x i32], [30 x i32]* %5, i64 0, i64 %60
  store i32 %58, i32* %61, align 4
  br label %62

62:                                               ; preds = %48, %38
  br label %63

63:                                               ; preds = %62
  %64 = load i32, i32* %8, align 4
  %65 = add nsw i32 %64, -1
  store i32 %65, i32* %8, align 4
  br label %34

66:                                               ; preds = %34
  br label %67

67:                                               ; preds = %66
  %68 = load i32, i32* %7, align 4
  %69 = add nsw i32 %68, -1
  store i32 %69, i32* %7, align 4
  br label %28

70:                                               ; preds = %28
  %71 = getelementptr inbounds [30 x i32], [30 x i32]* %5, i64 0, i64 0
  %72 = bitcast i32* %71 to i8*
  call void @qsort(i8* %72, i64 30, i64 4, i32 (i8*, i8*)* @com)
  %73 = getelementptr inbounds [30 x i32], [30 x i32]* %5, i64 0, i64 29
  %74 = load i32, i32* %73, align 4
  %75 = add nsw i32 %74, 1
  %76 = call i32 (i8*, ...) @printf(i8* getelementptr inbounds ([3 x i8], [3 x i8]* @.str, i64 0, i64 0), i32 %75)
  %77 = call i32 @getchar()
  %78 = call i32 @getchar()
  %79 = load i32, i32* %1, align 4
  ret i32 %79
}

; Function Attrs: argmemonly nounwind willreturn
declare void @llvm.memset.p0i8.i64(i8* nocapture writeonly, i8, i64, i1 immarg) #1

declare dso_local i32 @__isoc99_scanf(i8*, ...) #2

declare dso_local i32 @max(...) #2

declare dso_local void @qsort(i8*, i64, i64, i32 (i8*, i8*)*) #2

declare dso_local i32 @printf(i8*, ...) #2

declare dso_local i32 @getchar() #2


!llvm.module.flags = !{!0}
!llvm.ident = !{!1}

!0 = !{i32 1, !"wchar_size", i32 4}
!1 = !{!"clang version 10.0.0-4ubuntu1 "}
