; ModuleID = 'source-C-CXX/9/1939.c'
source_filename = "source-C-CXX/9/1939.c"
target datalayout = "e-m:e-p270:32:32-p271:32:32-p272:64:64-i64:64-f80:128-n8:16:32:64-S128"
target triple = "x86_64-pc-linux-gnu"

%struct._IO_FILE = type { i32, i8*, i8*, i8*, i8*, i8*, i8*, i8*, i8*, i8*, i8*, i8*, %struct._IO_marker*, %struct._IO_FILE*, i32, i32, i64, i16, i8, [1 x i8], i8*, i64, %struct._IO_codecvt*, %struct._IO_wide_data*, %struct._IO_FILE*, i8*, i64, i32, [20 x i8] }
%struct._IO_marker = type opaque
%struct._IO_codecvt = type opaque
%struct._IO_wide_data = type opaque

@.str = private unnamed_addr constant [3 x i8] c"%d\00", align 1
@stdin = external local_unnamed_addr global %struct._IO_FILE*, align 8

; Function Attrs: mustprogress nofree norecurse nosync nounwind readonly sspstrong uwtable willreturn
define dso_local i32 @com(i8* nocapture readonly %0, i8* nocapture readonly %1) #0 {
  %3 = bitcast i8* %0 to i32*
  %4 = load i32, i32* %3, align 4, !tbaa !5
  %5 = bitcast i8* %1 to i32*
  %6 = load i32, i32* %5, align 4, !tbaa !5
  %7 = sub nsw i32 %4, %6
  ret i32 %7
}

; Function Attrs: nounwind sspstrong uwtable
define dso_local i32 @main() local_unnamed_addr #1 {
  %1 = alloca i32, align 4
  %2 = alloca [30 x i32], align 16
  %3 = alloca [30 x i32], align 16
  %4 = bitcast i32* %1 to i8*
  call void @llvm.lifetime.start.p0i8(i64 4, i8* nonnull %4) #7
  %5 = bitcast [30 x i32]* %2 to i8*
  call void @llvm.lifetime.start.p0i8(i64 120, i8* nonnull %5) #7
  %6 = bitcast [30 x i32]* %3 to i8*
  call void @llvm.lifetime.start.p0i8(i64 120, i8* nonnull %6) #7
  call void @llvm.memset.p0i8.i64(i8* noundef nonnull align 16 dereferenceable(120) %6, i8 0, i64 120, i1 false)
  %7 = getelementptr inbounds [30 x i32], [30 x i32]* %3, i64 0, i64 0
  store i32 1, i32* %7, align 16
  %8 = call i32 (i8*, ...) @__isoc99_scanf(i8* getelementptr inbounds ([3 x i8], [3 x i8]* @.str, i64 0, i64 0), i32* nonnull %1)
  %9 = load i32, i32* %1, align 4, !tbaa !5
  %10 = icmp sgt i32 %9, 0
  br i1 %10, label %16, label %24

11:                                               ; preds = %16
  %12 = icmp sgt i32 %21, 1
  br i1 %12, label %13, label %24

13:                                               ; preds = %11
  %14 = add nsw i32 %21, -2
  %15 = zext i32 %14 to i64
  br label %33

16:                                               ; preds = %0, %16
  %17 = phi i64 [ %20, %16 ], [ 0, %0 ]
  %18 = getelementptr inbounds [30 x i32], [30 x i32]* %2, i64 0, i64 %17
  %19 = call i32 (i8*, ...) @__isoc99_scanf(i8* getelementptr inbounds ([3 x i8], [3 x i8]* @.str, i64 0, i64 0), i32* nonnull %18)
  %20 = add nuw nsw i64 %17, 1
  %21 = load i32, i32* %1, align 4, !tbaa !5
  %22 = sext i32 %21 to i64
  %23 = icmp slt i64 %20, %22
  br i1 %23, label %16, label %11, !llvm.loop !9

24:                                               ; preds = %41, %0, %11
  call void @qsort(i8* nonnull %6, i64 30, i64 4, i32 (i8*, i8*)* nonnull @com) #7
  %25 = getelementptr inbounds [30 x i32], [30 x i32]* %3, i64 0, i64 29
  %26 = load i32, i32* %25, align 4, !tbaa !5
  %27 = add nsw i32 %26, 1
  %28 = call i32 (i8*, ...) @printf(i8* nonnull dereferenceable(1) getelementptr inbounds ([3 x i8], [3 x i8]* @.str, i64 0, i64 0), i32 %27)
  %29 = load %struct._IO_FILE*, %struct._IO_FILE** @stdin, align 8, !tbaa !11
  %30 = call i32 @getc(%struct._IO_FILE* %29) #7
  %31 = load %struct._IO_FILE*, %struct._IO_FILE** @stdin, align 8, !tbaa !11
  %32 = call i32 @getc(%struct._IO_FILE* %31) #7
  call void @llvm.lifetime.end.p0i8(i64 120, i8* nonnull %6) #7
  call void @llvm.lifetime.end.p0i8(i64 120, i8* nonnull %5) #7
  call void @llvm.lifetime.end.p0i8(i64 4, i8* nonnull %4) #7
  ret i32 0

33:                                               ; preds = %43, %13
  %34 = phi i32 [ %21, %13 ], [ %45, %43 ]
  %35 = phi i64 [ %15, %13 ], [ %44, %43 ]
  %36 = getelementptr inbounds [30 x i32], [30 x i32]* %2, i64 0, i64 %35
  %37 = getelementptr inbounds [30 x i32], [30 x i32]* %3, i64 0, i64 %35
  %38 = add i32 %34, -1
  %39 = sext i32 %38 to i64
  %40 = icmp slt i64 %35, %39
  br i1 %40, label %46, label %41

41:                                               ; preds = %58, %33
  %42 = icmp sgt i64 %35, 0
  br i1 %42, label %43, label %24, !llvm.loop !13

43:                                               ; preds = %41
  %44 = add nsw i64 %35, -1
  %45 = load i32, i32* %1, align 4, !tbaa !5
  br label %33

46:                                               ; preds = %33, %58
  %47 = phi i64 [ %59, %58 ], [ %39, %33 ]
  %48 = load i32, i32* %36, align 4, !tbaa !5
  %49 = getelementptr inbounds [30 x i32], [30 x i32]* %2, i64 0, i64 %47
  %50 = load i32, i32* %49, align 4, !tbaa !5
  %51 = icmp slt i32 %48, %50
  br i1 %51, label %58, label %52

52:                                               ; preds = %46
  %53 = getelementptr inbounds [30 x i32], [30 x i32]* %3, i64 0, i64 %47
  %54 = load i32, i32* %53, align 4, !tbaa !5
  %55 = add nsw i32 %54, 1
  %56 = load i32, i32* %37, align 4, !tbaa !5
  %57 = call i32 (i32, i32, ...) bitcast (i32 (...)* @max to i32 (i32, i32, ...)*)(i32 %55, i32 %56) #7
  store i32 %57, i32* %37, align 4, !tbaa !5
  br label %58

58:                                               ; preds = %46, %52
  %59 = add nsw i64 %47, -1
  %60 = icmp sgt i64 %59, %35
  br i1 %60, label %46, label %41, !llvm.loop !14
}

; Function Attrs: argmemonly mustprogress nofree nosync nounwind willreturn
declare void @llvm.lifetime.start.p0i8(i64 immarg, i8* nocapture) #2

; Function Attrs: argmemonly mustprogress nofree nounwind willreturn writeonly
declare void @llvm.memset.p0i8.i64(i8* nocapture writeonly, i8, i64, i1 immarg) #3

; Function Attrs: nofree nounwind
declare noundef i32 @__isoc99_scanf(i8* nocapture noundef readonly, ...) local_unnamed_addr #4

; Function Attrs: argmemonly mustprogress nofree nosync nounwind willreturn
declare void @llvm.lifetime.end.p0i8(i64 immarg, i8* nocapture) #2

declare i32 @max(...) local_unnamed_addr #5

; Function Attrs: nofree
declare void @qsort(i8* noundef, i64 noundef, i64 noundef, i32 (i8*, i8*)* nocapture noundef) local_unnamed_addr #6

; Function Attrs: nofree nounwind
declare noundef i32 @printf(i8* nocapture noundef readonly, ...) local_unnamed_addr #4

; Function Attrs: nofree nounwind
declare noundef i32 @getc(%struct._IO_FILE* nocapture noundef) local_unnamed_addr #4


!llvm.module.flags = !{!0, !1, !2, !3}
!llvm.ident = !{!4}

!0 = !{i32 1, !"wchar_size", i32 4}
!1 = !{i32 7, !"PIC Level", i32 2}
!2 = !{i32 7, !"PIE Level", i32 2}
!3 = !{i32 7, !"uwtable", i32 1}
!4 = !{!"clang version 13.0.0"}
!5 = !{!6, !6, i64 0}
!6 = !{!"int", !7, i64 0}
!7 = !{!"omnipotent char", !8, i64 0}
!8 = !{!"Simple C/C++ TBAA"}
!9 = distinct !{!9, !10}
!10 = !{!"llvm.loop.mustprogress"}
!11 = !{!12, !12, i64 0}
!12 = !{!"any pointer", !7, i64 0}
!13 = distinct !{!13, !10}
!14 = distinct !{!14, !10}
